; Function Attrs: nounwind uwtable
define hidden void @lxb_html_tree_generate_implied_end_tags(ptr nocapture noundef readonly %0, i64 noundef %1, i64 noundef %2) local_unnamed_addr #0 {
  %4 = getelementptr inbounds i8, ptr %0, i64 32
  %5 = load ptr, ptr %4, align 8
  %6 = getelementptr i8, ptr %5, i64 16
  %.val79 = load i64, ptr %6, align 8
  %.not10 = icmp eq i64 %.val79, 0
  br i1 %.not10, label %lxb_html_tree_current_node.exit._crit_edge, label %lxb_html_tree_current_node.exit

lxb_html_tree_current_node.exit:                  ; preds = %3, %20
  %.val711 = phi i64 [ %.val7, %20 ], [ %.val79, %3 ]
  %7 = phi ptr [ %22, %20 ], [ %5, %3 ]
  %8 = load ptr, ptr %7, align 8
  %9 = getelementptr ptr, ptr %8, i64 %.val711
  %10 = getelementptr i8, ptr %9, i64 -8
  %11 = load ptr, ptr %10, align 8
  %12 = getelementptr inbounds i8, ptr %11, i64 8
  %13 = load i64, ptr %12, align 8
  switch i64 %13, label %lxb_html_tree_current_node.exit._crit_edge [
    i64 44, label %14
    i64 53, label %14
    i64 113, label %14
    i64 142, label %14
    i64 143, label %14
    i64 145, label %14
    i64 154, label %14
    i64 155, label %14
    i64 156, label %14
    i64 157, label %14
  ]

14:                                               ; preds = %lxb_html_tree_current_node.exit, %lxb_html_tree_current_node.exit, %lxb_html_tree_current_node.exit, %lxb_html_tree_current_node.exit, %lxb_html_tree_current_node.exit, %lxb_html_tree_current_node.exit, %lxb_html_tree_current_node.exit, %lxb_html_tree_current_node.exit, %lxb_html_tree_current_node.exit, %lxb_html_tree_current_node.exit
  %15 = icmp eq i64 %13, %1
  br i1 %15, label %16, label %20

16:                                               ; preds = %14
  %17 = getelementptr inbounds i8, ptr %11, i64 24
  %18 = load i64, ptr %17, align 8
  %19 = icmp eq i64 %18, %2
  br i1 %19, label %lxb_html_tree_current_node.exit._crit_edge, label %20

20:                                               ; preds = %16, %14
  %21 = tail call ptr @lexbor_array_pop(ptr noundef nonnull %7) #9
  %22 = load ptr, ptr %4, align 8
  %23 = getelementptr i8, ptr %22, i64 16
  %.val7 = load i64, ptr %23, align 8
  %.not = icmp eq i64 %.val7, 0
  br i1 %.not, label %lxb_html_tree_current_node.exit._crit_edge, label %lxb_html_tree_current_node.exit

lxb_html_tree_current_node.exit._crit_edge:       ; preds = %20, %16, %lxb_html_tree_current_node.exit, %3
  ret void
}